; Function Attrs: mustprogress nounwind uwtable
define hidden void @_ZN14ZCollectedHeap12memory_usageEv(ptr dead_on_unwind noalias nocapture writable writeonly sret(%class.MemoryUsage) align 8 %0, ptr nocapture nonnull readnone align 64 %1) unnamed_addr #1 align 2 {
  %3 = load ptr, ptr @_ZN5ZHeap5_heapE, align 8
  %4 = tail call noundef i64 @_ZNK5ZHeap16initial_capacityEv(ptr noundef nonnull align 64 dereferenceable(15937) %3) #12
  %5 = load ptr, ptr @_ZN5ZHeap5_heapE, align 8
  %6 = tail call noundef i64 @_ZNK5ZHeap8capacityEv(ptr noundef nonnull align 64 dereferenceable(15937) %5) #12
  %7 = load ptr, ptr @_ZN5ZHeap5_heapE, align 8
  %8 = tail call noundef i64 @_ZNK5ZHeap4usedEv(ptr noundef nonnull align 64 dereferenceable(15937) %7) #12
  %9 = tail call noundef i64 @llvm.umin.i64(i64 %8, i64 %6)
  %10 = load ptr, ptr @_ZN5ZHeap5_heapE, align 8
  %11 = tail call noundef i64 @_ZNK5ZHeap12max_capacityEv(ptr noundef nonnull align 64 dereferenceable(15937) %10) #12
  store i64 %4, ptr %0, align 8
  %12 = getelementptr inbounds i8, ptr %0, i64 8
  store i64 %9, ptr %12, align 8
  %13 = getelementptr inbounds i8, ptr %0, i64 16
  store i64 %6, ptr %13, align 8
  %14 = getelementptr inbounds i8, ptr %0, i64 24
  store i64 %11, ptr %14, align 8
  ret void
}